target datalayout = "e-m:e-p270:32:32-p271:32:32-p272:64:64-i64:64-i128:128-f80:128-n8:16:32:64-S128"
target triple = "x86_64-pc-linux-gnu"

%class.svector.5 = type { %class.vector.6 }
%class.vector.6 = type { ptr }
%"struct.substitution_tree::node" = type { i8, %class.svector.5, ptr, %union.anon }
%union.anon = type { ptr }

; Function Attrs: mustprogress uwtable
define hidden noundef ptr @_ZN17substitution_tree15find_best_childEPNS_4nodeE(ptr noundef nonnull align 8 dereferenceable(136) %0, ptr noundef %1) #4 align 2 {
  %3 = alloca ptr, align 8
  %4 = alloca ptr, align 8
  %5 = alloca ptr, align 8
  %6 = alloca i32, align 4
  %7 = alloca ptr, align 8
  %8 = alloca i32, align 4
  store ptr %0, ptr %3, align 8, !tbaa !3
  store ptr %1, ptr %4, align 8, !tbaa !97
  %9 = load ptr, ptr %3, align 8
  call void @llvm.lifetime.start.p0(i64 8, ptr %5) #3
  store ptr null, ptr %5, align 8, !tbaa !97
  call void @llvm.lifetime.start.p0(i64 4, ptr %6) #3
  store i32 0, ptr %6, align 4, !tbaa !33
  call void @llvm.lifetime.start.p0(i64 8, ptr %7) #3
  %10 = load ptr, ptr %4, align 8, !tbaa !97
  %11 = getelementptr inbounds nuw %"struct.substitution_tree::node", ptr %10, i32 0, i32 3
  %12 = load ptr, ptr %11, align 8, !tbaa !99
  store ptr %12, ptr %7, align 8, !tbaa !97
  br label %13

13:                                               ; preds = %26, %2
  %14 = load ptr, ptr %7, align 8, !tbaa !97
  %15 = icmp ne ptr %14, null
  br i1 %15, label %16, label %30

16:                                               ; preds = %13
  call void @llvm.lifetime.start.p0(i64 4, ptr %8) #3
  %17 = load ptr, ptr %7, align 8, !tbaa !97
  %18 = getelementptr inbounds nuw %"struct.substitution_tree::node", ptr %17, i32 0, i32 1
  %19 = call noundef i32 @_ZN17substitution_tree25get_compatibility_measureERK7svectorISt4pairIP3varP4exprEjE(ptr noundef nonnull align 8 dereferenceable(136) %9, ptr noundef nonnull align 8 dereferenceable(8) %18)
  store i32 %19, ptr %8, align 4, !tbaa !33
  %20 = load i32, ptr %8, align 4, !tbaa !33
  %21 = load i32, ptr %6, align 4, !tbaa !33
  %22 = icmp ugt i32 %20, %21
  br i1 %22, label %23, label %26

23:                                               ; preds = %16
  %24 = load ptr, ptr %7, align 8, !tbaa !97
  store ptr %24, ptr %5, align 8, !tbaa !97
  %25 = load i32, ptr %8, align 4, !tbaa !33
  store i32 %25, ptr %6, align 4, !tbaa !33
  br label %26

26:                                               ; preds = %23, %16
  %27 = load ptr, ptr %7, align 8, !tbaa !97
  %28 = getelementptr inbounds nuw %"struct.substitution_tree::node", ptr %27, i32 0, i32 2
  %29 = load ptr, ptr %28, align 8, !tbaa !100
  store ptr %29, ptr %7, align 8, !tbaa !97
  call void @llvm.lifetime.end.p0(i64 4, ptr %8) #3
  br label %13, !llvm.loop !102

30:                                               ; preds = %13
  %31 = load ptr, ptr %5, align 8, !tbaa !97
  call void @llvm.lifetime.end.p0(i64 8, ptr %7) #3
  call void @llvm.lifetime.end.p0(i64 4, ptr %6) #3
  call void @llvm.lifetime.end.p0(i64 8, ptr %5) #3
  ret ptr %31
}