; Function Attrs: mustprogress uwtable
define hidden noundef ptr @_ZN17substitution_tree15find_best_childEPNS_4nodeE(ptr noundef nonnull align 8 dereferenceable(136) %0, ptr noundef readonly captures(none) %1) local_unnamed_addr #5 align 2 {
  %3 = getelementptr inbounds nuw i8, ptr %1, i64 24
  %.0914 = load ptr, ptr %3, align 8, !tbaa !63
  %.not15 = icmp eq ptr %.0914, null
  br i1 %.not15, label %._crit_edge, label %.lr.ph

.lr.ph:                                           ; preds = %2, %.lr.ph
  %.0918 = phi ptr [ %.09, %.lr.ph ], [ %.0914, %2 ]
  %.017 = phi ptr [ %spec.select13, %.lr.ph ], [ null, %2 ]
  %.01016 = phi i32 [ %spec.select, %.lr.ph ], [ 0, %2 ]
  %4 = getelementptr inbounds nuw i8, ptr %.0918, i64 8
  %5 = tail call noundef i32 @_ZN17substitution_tree25get_compatibility_measureERK7svectorISt4pairIP3varP4exprEjE(ptr noundef nonnull align 8 dereferenceable(136) %0, ptr noundef nonnull align 8 dereferenceable(8) %4)
  %6 = icmp ugt i32 %5, %.01016
  %spec.select = tail call i32 @llvm.umax.i32(i32 %5, i32 %.01016)
  %spec.select13 = select i1 %6, ptr %.0918, ptr %.017
  %7 = getelementptr inbounds nuw i8, ptr %.0918, i64 16
  %.09 = load ptr, ptr %7, align 8, !tbaa !63
  %.not = icmp eq ptr %.09, null
  br i1 %.not, label %._crit_edge, label %.lr.ph, !llvm.loop !76

._crit_edge:                                      ; preds = %.lr.ph, %2
  %.0.lcssa = phi ptr [ null, %2 ], [ %spec.select13, %.lr.ph ]
  ret ptr %.0.lcssa
}